; Function Attrs: mustprogress nounwind uwtable
define hidden void @_ZN20ParallelScavengeHeap14object_iterateEP13ObjectClosure(ptr nocapture nonnull readnone align 8 %0, ptr noundef %1) unnamed_addr #0 align 2 {
  %3 = load ptr, ptr @_ZN20ParallelScavengeHeap10_young_genE, align 8
  tail call void @_ZN10PSYoungGen14object_iterateEP13ObjectClosure(ptr noundef nonnull align 8 dereferenceable(104) %3, ptr noundef %1) #15
  %4 = load ptr, ptr @_ZN20ParallelScavengeHeap8_old_genE, align 8
  %5 = getelementptr inbounds i8, ptr %4, i64 88
  %6 = load ptr, ptr %5, align 8
  tail call void @_ZN12MutableSpace14object_iterateEP13ObjectClosure(ptr noundef nonnull align 8 dereferenceable(56) %6, ptr noundef %1) #15
  ret void
}